target datalayout = "e-m:e-p270:32:32-p271:32:32-p272:64:64-i64:64-i128:128-f80:128-n8:16:32:64-S128"
target triple = "x86_64-pc-linux-gnu"

%"class.cv::bioinspired::BasicRetinaFilter" = type { %"class.cv::bioinspired::TemplateBuffer", %"class.std::valarray", i32, i32, %"class.std::valarray", %"class.std::valarray", %"class.std::valarray", float, float, float, float, float, float, float, float }
%"class.cv::bioinspired::TemplateBuffer" = type { ptr, %"class.std::valarray", i64, i64, i64, i64, i64 }
%"class.std::valarray" = type { i64, ptr }

; Function Attrs: inlinehint mustprogress nounwind uwtable
define linkonce_odr hidden noundef i32 @_ZN2cv11bioinspired14TemplateBufferIfE11getNBpixelsEv(ptr noundef nonnull align 8 dereferenceable(64) %0) #6 comdat align 2 {
  %2 = alloca ptr, align 8
  store ptr %0, ptr %2, align 8, !tbaa !23
  %3 = load ptr, ptr %2, align 8
  %4 = getelementptr inbounds nuw %"class.cv::bioinspired::TemplateBuffer", ptr %3, i32 0, i32 5
  %5 = load i64, ptr %4, align 8, !tbaa !32
  %6 = trunc i64 %5 to i32
  ret i32 %6
}

; Function Attrs: mustprogress uwtable
define hidden void @_ZN2cv11bioinspired17BasicRetinaFilter37_localLuminanceAdaptationPosNegValuesEPKfS3_Pf(ptr noundef nonnull align 8 dereferenceable(168) %0, ptr noundef %1, ptr noundef %2, ptr noundef %3) #4 align 2 {
  %5 = alloca ptr, align 8
  %6 = alloca ptr, align 8
  %7 = alloca ptr, align 8
  %8 = alloca ptr, align 8
  %9 = alloca ptr, align 8
  %10 = alloca ptr, align 8
  %11 = alloca ptr, align 8
  %12 = alloca float, align 4
  %13 = alloca i32, align 4
  %14 = alloca float, align 4
  store ptr %0, ptr %5, align 8, !tbaa !3
  store ptr %1, ptr %6, align 8, !tbaa !49
  store ptr %2, ptr %7, align 8, !tbaa !49
  store ptr %3, ptr %8, align 8, !tbaa !49
  %15 = load ptr, ptr %5, align 8
  call void @llvm.lifetime.start.p0(i64 8, ptr %9) #3
  %16 = load ptr, ptr %7, align 8, !tbaa !49
  store ptr %16, ptr %9, align 8, !tbaa !49
  call void @llvm.lifetime.start.p0(i64 8, ptr %10) #3
  %17 = load ptr, ptr %6, align 8, !tbaa !49
  store ptr %17, ptr %10, align 8, !tbaa !49
  call void @llvm.lifetime.start.p0(i64 8, ptr %11) #3
  %18 = load ptr, ptr %8, align 8, !tbaa !49
  store ptr %18, ptr %11, align 8, !tbaa !49
  call void @llvm.lifetime.start.p0(i64 4, ptr %12) #3
  %19 = getelementptr inbounds nuw %"class.cv::bioinspired::BasicRetinaFilter", ptr %15, i32 0, i32 8
  %20 = load float, ptr %19, align 4, !tbaa !22
  %21 = fmul float %20, 2.000000e+00
  %22 = fdiv float %21, 0x400921FB60000000
  store float %22, ptr %12, align 4, !tbaa !26
  call void @llvm.lifetime.start.p0(i64 4, ptr %13) #3
  store i32 0, ptr %13, align 4, !tbaa !8
  br label %23

23:                                               ; preds = %50, %4
  %24 = load i32, ptr %13, align 4, !tbaa !8
  %25 = getelementptr inbounds nuw %"class.cv::bioinspired::BasicRetinaFilter", ptr %15, i32 0, i32 0
  %26 = call noundef i32 @_ZN2cv11bioinspired14TemplateBufferIfE11getNBpixelsEv(ptr noundef nonnull align 8 dereferenceable(64) %25)
  %27 = icmp ult i32 %24, %26
  br i1 %27, label %29, label %28

28:                                               ; preds = %23
  call void @llvm.lifetime.end.p0(i64 4, ptr %13) #3
  br label %55

29:                                               ; preds = %23
  call void @llvm.lifetime.start.p0(i64 4, ptr %14) #3
  %30 = load ptr, ptr %9, align 8, !tbaa !49
  %31 = getelementptr inbounds nuw float, ptr %30, i32 1
  store ptr %31, ptr %9, align 8, !tbaa !49
  %32 = load float, ptr %30, align 4, !tbaa !26
  %33 = getelementptr inbounds nuw %"class.cv::bioinspired::BasicRetinaFilter", ptr %15, i32 0, i32 10
  %34 = load float, ptr %33, align 4, !tbaa !51
  %35 = getelementptr inbounds nuw %"class.cv::bioinspired::BasicRetinaFilter", ptr %15, i32 0, i32 11
  %36 = load float, ptr %35, align 8, !tbaa !52
  %37 = call float @llvm.fmuladd.f32(float %32, float %34, float %36)
  store float %37, ptr %14, align 4, !tbaa !26
  %38 = load float, ptr %12, align 4, !tbaa !26
  %39 = fpext float %38 to double
  %40 = load ptr, ptr %10, align 8, !tbaa !49
  %41 = load float, ptr %40, align 4, !tbaa !26
  %42 = load float, ptr %14, align 4, !tbaa !26
  %43 = fdiv float %41, %42
  %44 = fpext float %43 to double
  %45 = call double @atan(double noundef %44) #3, !tbaa !8
  %46 = fmul double %39, %45
  %47 = fptrunc double %46 to float
  %48 = load ptr, ptr %11, align 8, !tbaa !49
  %49 = getelementptr inbounds nuw float, ptr %48, i32 1
  store ptr %49, ptr %11, align 8, !tbaa !49
  store float %47, ptr %48, align 4, !tbaa !26
  call void @llvm.lifetime.end.p0(i64 4, ptr %14) #3
  br label %50

50:                                               ; preds = %29
  %51 = load i32, ptr %13, align 4, !tbaa !8
  %52 = add i32 %51, 1
  store i32 %52, ptr %13, align 4, !tbaa !8
  %53 = load ptr, ptr %10, align 8, !tbaa !49
  %54 = getelementptr inbounds nuw float, ptr %53, i32 1
  store ptr %54, ptr %10, align 8, !tbaa !49
  br label %23, !llvm.loop !71

55:                                               ; preds = %28
  call void @llvm.lifetime.end.p0(i64 4, ptr %12) #3
  call void @llvm.lifetime.end.p0(i64 8, ptr %11) #3
  call void @llvm.lifetime.end.p0(i64 8, ptr %10) #3
  call void @llvm.lifetime.end.p0(i64 8, ptr %9) #3
  ret void
}