; Function Attrs: mustprogress nofree nounwind memory(write, argmem: readwrite) uwtable
define hidden void @_ZN2cv11bioinspired17BasicRetinaFilter37_localLuminanceAdaptationPosNegValuesEPKfS3_Pf(ptr noundef nonnull readonly align 8 captures(none) dereferenceable(168) %0, ptr noundef readonly captures(none) %1, ptr noundef readonly captures(none) %2, ptr noundef writeonly captures(none) %3) local_unnamed_addr #7 align 2 {
  %5 = getelementptr inbounds nuw i8, ptr %0, i64 48
  %6 = load i64, ptr %5, align 8, !tbaa !19
  %7 = trunc i64 %6 to i32
  %.not = icmp eq i32 %7, 0
  br i1 %.not, label %._crit_edge, label %.lr.ph

.lr.ph:                                           ; preds = %4
  %8 = getelementptr inbounds nuw i8, ptr %0, i64 140
  %9 = load float, ptr %8, align 4, !tbaa !25
  %10 = fmul float %9, 2.000000e+00
  %11 = fdiv float %10, 0x400921FB60000000
  %12 = getelementptr inbounds nuw i8, ptr %0, i64 148
  %13 = getelementptr inbounds nuw i8, ptr %0, i64 152
  %14 = fpext float %11 to double
  br label %15

._crit_edge:                                      ; preds = %15, %4
  ret void

15:                                               ; preds = %.lr.ph, %15
  %.017 = phi ptr [ %2, %.lr.ph ], [ %16, %15 ]
  %.01116 = phi i32 [ 0, %.lr.ph ], [ %28, %15 ]
  %.01215 = phi ptr [ %1, %.lr.ph ], [ %29, %15 ]
  %.01314 = phi ptr [ %3, %.lr.ph ], [ %27, %15 ]
  %16 = getelementptr inbounds nuw i8, ptr %.017, i64 4
  %17 = load float, ptr %.017, align 4, !tbaa !11
  %18 = load float, ptr %12, align 4, !tbaa !68
  %19 = load float, ptr %13, align 8, !tbaa !70
  %20 = tail call float @llvm.fmuladd.f32(float %17, float %18, float %19)
  %21 = load float, ptr %.01215, align 4, !tbaa !11
  %22 = fdiv float %21, %20
  %23 = fpext float %22 to double
  %24 = tail call double @atan(double noundef %23) #19, !tbaa !61
  %25 = fmul double %24, %14
  %26 = fptrunc double %25 to float
  %27 = getelementptr inbounds nuw i8, ptr %.01314, i64 4
  store float %26, ptr %.01314, align 4, !tbaa !11
  %28 = add nuw i32 %.01116, 1
  %29 = getelementptr inbounds nuw i8, ptr %.01215, i64 4
  %exitcond.not = icmp eq i32 %28, %7
  br i1 %exitcond.not, label %._crit_edge, label %15, !llvm.loop !108
}